ccopy_reg
_reconstructor
p1
(cargparse
Namespace
p2
c__builtin__
object
p3
NtRp4
(dp5
S'num_epochs'
p6
I50
sS'grad_clip'
p7
F5
sS'rnn_size'
p8
I256
sS'data_dir'
p9
S'data/tinyshakespeare'
p10
sS'vocab_size'
p11
I25670
sS'learning_rate'
p12
F0.002
sS'save_dir'
p13
S'save'
p14
sS'init_from'
p15
NsS'seq_length'
p16
I25
sS'batch_size'
p17
I50
sS'decay_rate'
p18
F0.96999999999999997
sS'gpu_mem'
p19
F0.66600000000000004
sS'log_dir'
p20
S'logs'
p21
sS'num_layers'
p22
I2
sS'model'
p23
S'lstm'
p24
sS'save_every'
p25
I1000
sb.